target datalayout = "e-m:e-p270:32:32-p271:32:32-p272:64:64-i64:64-i128:128-f80:128-n8:16:32:64-S128"
target triple = "x86_64-pc-linux-gnu"

%struct.stat = type { i64, i64, i64, i32, i32, i32, i32, i64, i64, i64, i64, %struct.timespec, %struct.timespec, %struct.timespec, [3 x i64] }
%struct.timespec = type { i64, i64 }
%struct.stat_data = type { %struct.cache_time, %struct.cache_time, i32, i32, i32, i32, i32 }
%struct.cache_time = type { i32, i32 }
%struct.stat_validity = type { ptr }

@trust_ctime = external global i32, align 4
@check_stat = external global i32, align 4

; Function Attrs: nounwind uwtable
define internal i32 @munge_st_size(i64 noundef %0) #0 {
  %2 = alloca i32, align 4
  %3 = alloca i64, align 8
  %4 = alloca i32, align 4
  %5 = alloca i32, align 4
  store i64 %0, ptr %3, align 8, !tbaa !35
  call void @llvm.lifetime.start.p0(i64 4, ptr %4) #4
  %6 = load i64, ptr %3, align 8, !tbaa !35
  %7 = trunc i64 %6 to i32
  store i32 %7, ptr %4, align 4, !tbaa !36
  %8 = load i32, ptr %4, align 4, !tbaa !36
  %9 = icmp ne i32 %8, 0
  br i1 %9, label %14, label %10

10:                                               ; preds = %1
  %11 = load i64, ptr %3, align 8, !tbaa !35
  %12 = icmp ne i64 %11, 0
  br i1 %12, label %13, label %14

13:                                               ; preds = %10
  store i32 -2147483648, ptr %2, align 4
  store i32 1, ptr %5, align 4
  br label %16

14:                                               ; preds = %10, %1
  %15 = load i32, ptr %4, align 4, !tbaa !36
  store i32 %15, ptr %2, align 4
  store i32 1, ptr %5, align 4
  br label %16

16:                                               ; preds = %14, %13
  call void @llvm.lifetime.end.p0(i64 4, ptr %4) #4
  %17 = load i32, ptr %2, align 4
  ret i32 %17
}

; Function Attrs: nounwind uwtable
define dso_local i32 @match_stat_data(ptr noundef %0, ptr noundef %1) #0 {
  %3 = alloca ptr, align 8
  %4 = alloca ptr, align 8
  %5 = alloca i32, align 4
  store ptr %0, ptr %3, align 8, !tbaa !4
  store ptr %1, ptr %4, align 8, !tbaa !9
  call void @llvm.lifetime.start.p0(i64 4, ptr %5) #4
  store i32 0, ptr %5, align 4, !tbaa !36
  %6 = load ptr, ptr %3, align 8, !tbaa !4
  %7 = getelementptr inbounds nuw %struct.stat_data, ptr %6, i32 0, i32 1
  %8 = getelementptr inbounds nuw %struct.cache_time, ptr %7, i32 0, i32 0
  %9 = load i32, ptr %8, align 4, !tbaa !20
  %10 = load ptr, ptr %4, align 8, !tbaa !9
  %11 = getelementptr inbounds nuw %struct.stat, ptr %10, i32 0, i32 12
  %12 = getelementptr inbounds nuw %struct.timespec, ptr %11, i32 0, i32 0
  %13 = load i64, ptr %12, align 8, !tbaa !19
  %14 = trunc i64 %13 to i32
  %15 = icmp ne i32 %9, %14
  br i1 %15, label %16, label %19

16:                                               ; preds = %2
  %17 = load i32, ptr %5, align 4, !tbaa !36
  %18 = or i32 %17, 1
  store i32 %18, ptr %5, align 4, !tbaa !36
  br label %19

19:                                               ; preds = %16, %2
  %20 = load i32, ptr @trust_ctime, align 4, !tbaa !36
  %21 = icmp ne i32 %20, 0
  br i1 %21, label %22, label %39

22:                                               ; preds = %19
  %23 = load i32, ptr @check_stat, align 4, !tbaa !36
  %24 = icmp ne i32 %23, 0
  br i1 %24, label %25, label %39

25:                                               ; preds = %22
  %26 = load ptr, ptr %3, align 8, !tbaa !4
  %27 = getelementptr inbounds nuw %struct.stat_data, ptr %26, i32 0, i32 0
  %28 = getelementptr inbounds nuw %struct.cache_time, ptr %27, i32 0, i32 0
  %29 = load i32, ptr %28, align 4, !tbaa !16
  %30 = load ptr, ptr %4, align 8, !tbaa !9
  %31 = getelementptr inbounds nuw %struct.stat, ptr %30, i32 0, i32 13
  %32 = getelementptr inbounds nuw %struct.timespec, ptr %31, i32 0, i32 0
  %33 = load i64, ptr %32, align 8, !tbaa !11
  %34 = trunc i64 %33 to i32
  %35 = icmp ne i32 %29, %34
  br i1 %35, label %36, label %39

36:                                               ; preds = %25
  %37 = load i32, ptr %5, align 4, !tbaa !36
  %38 = or i32 %37, 2
  store i32 %38, ptr %5, align 4, !tbaa !36
  br label %39

39:                                               ; preds = %36, %25, %22, %19
  %40 = load i32, ptr @check_stat, align 4, !tbaa !36
  %41 = icmp ne i32 %40, 0
  br i1 %41, label %42, label %74

42:                                               ; preds = %39
  %43 = load ptr, ptr %3, align 8, !tbaa !4
  %44 = getelementptr inbounds nuw %struct.stat_data, ptr %43, i32 0, i32 4
  %45 = load i32, ptr %44, align 4, !tbaa !30
  %46 = load ptr, ptr %4, align 8, !tbaa !9
  %47 = getelementptr inbounds nuw %struct.stat, ptr %46, i32 0, i32 4
  %48 = load i32, ptr %47, align 4, !tbaa !29
  %49 = icmp ne i32 %45, %48
  br i1 %49, label %58, label %50

50:                                               ; preds = %42
  %51 = load ptr, ptr %3, align 8, !tbaa !4
  %52 = getelementptr inbounds nuw %struct.stat_data, ptr %51, i32 0, i32 5
  %53 = load i32, ptr %52, align 4, !tbaa !32
  %54 = load ptr, ptr %4, align 8, !tbaa !9
  %55 = getelementptr inbounds nuw %struct.stat, ptr %54, i32 0, i32 5
  %56 = load i32, ptr %55, align 8, !tbaa !31
  %57 = icmp ne i32 %53, %56
  br i1 %57, label %58, label %61

58:                                               ; preds = %50, %42
  %59 = load i32, ptr %5, align 4, !tbaa !36
  %60 = or i32 %59, 4
  store i32 %60, ptr %5, align 4, !tbaa !36
  br label %61

61:                                               ; preds = %58, %50
  %62 = load ptr, ptr %3, align 8, !tbaa !4
  %63 = getelementptr inbounds nuw %struct.stat_data, ptr %62, i32 0, i32 3
  %64 = load i32, ptr %63, align 4, !tbaa !28
  %65 = load ptr, ptr %4, align 8, !tbaa !9
  %66 = getelementptr inbounds nuw %struct.stat, ptr %65, i32 0, i32 1
  %67 = load i64, ptr %66, align 8, !tbaa !27
  %68 = trunc i64 %67 to i32
  %69 = icmp ne i32 %64, %68
  br i1 %69, label %70, label %73

70:                                               ; preds = %61
  %71 = load i32, ptr %5, align 4, !tbaa !36
  %72 = or i32 %71, 16
  store i32 %72, ptr %5, align 4, !tbaa !36
  br label %73

73:                                               ; preds = %70, %61
  br label %74

74:                                               ; preds = %73, %39
  %75 = load ptr, ptr %3, align 8, !tbaa !4
  %76 = getelementptr inbounds nuw %struct.stat_data, ptr %75, i32 0, i32 6
  %77 = load i32, ptr %76, align 4, !tbaa !34
  %78 = load ptr, ptr %4, align 8, !tbaa !9
  %79 = getelementptr inbounds nuw %struct.stat, ptr %78, i32 0, i32 8
  %80 = load i64, ptr %79, align 8, !tbaa !33
  %81 = call i32 @munge_st_size(i64 noundef %80)
  %82 = icmp ne i32 %77, %81
  br i1 %82, label %83, label %86

83:                                               ; preds = %74
  %84 = load i32, ptr %5, align 4, !tbaa !36
  %85 = or i32 %84, 32
  store i32 %85, ptr %5, align 4, !tbaa !36
  br label %86

86:                                               ; preds = %83, %74
  %87 = load i32, ptr %5, align 4, !tbaa !36
  call void @llvm.lifetime.end.p0(i64 4, ptr %5) #4
  ret i32 %87
}

; Function Attrs: nounwind uwtable
define dso_local i32 @stat_validity_check(ptr noundef %0, ptr noundef %1) #0 {
  %3 = alloca i32, align 4
  %4 = alloca ptr, align 8
  %5 = alloca ptr, align 8
  %6 = alloca %struct.stat, align 8
  %7 = alloca i32, align 4
  store ptr %0, ptr %4, align 8, !tbaa !37
  store ptr %1, ptr %5, align 8, !tbaa !41
  call void @llvm.lifetime.start.p0(i64 144, ptr %6) #4
  %8 = load ptr, ptr %5, align 8, !tbaa !41
  %9 = call i32 @stat64(ptr noundef %8, ptr noundef %6) #4
  %10 = icmp slt i32 %9, 0
  br i1 %10, label %11, label %17

11:                                               ; preds = %2
  %12 = load ptr, ptr %4, align 8, !tbaa !37
  %13 = getelementptr inbounds nuw %struct.stat_validity, ptr %12, i32 0, i32 0
  %14 = load ptr, ptr %13, align 8, !tbaa !39
  %15 = icmp eq ptr %14, null
  %16 = zext i1 %15 to i32
  store i32 %16, ptr %3, align 4
  store i32 1, ptr %7, align 4
  br label %38

17:                                               ; preds = %2
  %18 = load ptr, ptr %4, align 8, !tbaa !37
  %19 = getelementptr inbounds nuw %struct.stat_validity, ptr %18, i32 0, i32 0
  %20 = load ptr, ptr %19, align 8, !tbaa !39
  %21 = icmp ne ptr %20, null
  br i1 %21, label %23, label %22

22:                                               ; preds = %17
  store i32 0, ptr %3, align 4
  store i32 1, ptr %7, align 4
  br label %38

23:                                               ; preds = %17
  %24 = getelementptr inbounds nuw %struct.stat, ptr %6, i32 0, i32 3
  %25 = load i32, ptr %24, align 8, !tbaa !43
  %26 = and i32 %25, 61440
  %27 = icmp eq i32 %26, 32768
  br i1 %27, label %28, label %35

28:                                               ; preds = %23
  %29 = load ptr, ptr %4, align 8, !tbaa !37
  %30 = getelementptr inbounds nuw %struct.stat_validity, ptr %29, i32 0, i32 0
  %31 = load ptr, ptr %30, align 8, !tbaa !39
  %32 = call i32 @match_stat_data(ptr noundef %31, ptr noundef %6)
  %33 = icmp ne i32 %32, 0
  %34 = xor i1 %33, true
  br label %35

35:                                               ; preds = %28, %23
  %36 = phi i1 [ false, %23 ], [ %34, %28 ]
  %37 = zext i1 %36 to i32
  store i32 %37, ptr %3, align 4
  store i32 1, ptr %7, align 4
  br label %38

38:                                               ; preds = %35, %22, %11
  call void @llvm.lifetime.end.p0(i64 144, ptr %6) #4
  %39 = load i32, ptr %3, align 4
  ret i32 %39
}