; Function Attrs: nofree nounwind uwtable
define dso_local range(i32 0, 2) i32 @stat_validity_check(ptr noundef readonly captures(none) %0, ptr noundef readonly captures(none) %1) local_unnamed_addr #5 {
  %3 = alloca %struct.stat, align 8
  call void @llvm.lifetime.start.p0(i64 144, ptr nonnull %3) #9
  %4 = call i32 @stat64(ptr noundef %1, ptr noundef nonnull %3) #9
  %5 = icmp slt i32 %4, 0
  %6 = load ptr, ptr %0, align 8, !tbaa !31
  %7 = icmp eq ptr %6, null
  %brmerge = select i1 %5, i1 true, i1 %7
  %.mux = select i1 %5, i1 %7, i1 false
  br i1 %brmerge, label %55, label %8

8:                                                ; preds = %2
  %9 = getelementptr inbounds nuw i8, ptr %3, i64 24
  %10 = load i32, ptr %9, align 8, !tbaa !35
  %11 = and i32 %10, 61440
  %12 = icmp eq i32 %11, 32768
  br i1 %12, label %13, label %55

13:                                               ; preds = %8
  %14 = getelementptr inbounds nuw i8, ptr %6, i64 8
  %15 = load i32, ptr %14, align 4, !tbaa !15
  %16 = getelementptr inbounds nuw i8, ptr %3, i64 88
  %17 = load i64, ptr %16, align 8, !tbaa !14
  %18 = trunc i64 %17 to i32
  %.not.i = icmp ne i32 %15, %18
  %spec.select.i = zext i1 %.not.i to i32
  %19 = load i32, ptr @trust_ctime, align 4, !tbaa !30
  %20 = icmp ne i32 %19, 0
  %21 = load i32, ptr @check_stat, align 4
  %22 = icmp ne i32 %21, 0
  %or.cond.i = select i1 %20, i1 %22, i1 false
  br i1 %or.cond.i, label %.thread.i, label %28

.thread.i:                                        ; preds = %13
  %23 = load i32, ptr %6, align 4, !tbaa !11
  %24 = getelementptr inbounds nuw i8, ptr %3, i64 104
  %25 = load i64, ptr %24, align 8, !tbaa !4
  %26 = trunc i64 %25 to i32
  %.not18.i = icmp eq i32 %23, %26
  %27 = or disjoint i32 %spec.select.i, 2
  %spec.select24.i = select i1 %.not18.i, i32 %spec.select.i, i32 %27
  br label %29

28:                                               ; preds = %13
  %.not19.i = icmp eq i32 %21, 0
  br i1 %.not19.i, label %match_stat_data.exit, label %29

29:                                               ; preds = %28, %.thread.i
  %.129.i = phi i32 [ %spec.select24.i, %.thread.i ], [ %spec.select.i, %28 ]
  %30 = getelementptr inbounds nuw i8, ptr %6, i64 24
  %31 = load i32, ptr %30, align 4, !tbaa !25
  %32 = getelementptr inbounds nuw i8, ptr %3, i64 28
  %33 = load i32, ptr %32, align 4, !tbaa !24
  %.not20.i = icmp eq i32 %31, %33
  br i1 %.not20.i, label %34, label %39

34:                                               ; preds = %29
  %35 = getelementptr inbounds nuw i8, ptr %6, i64 28
  %36 = load i32, ptr %35, align 4, !tbaa !27
  %37 = getelementptr inbounds nuw i8, ptr %3, i64 32
  %38 = load i32, ptr %37, align 8, !tbaa !26
  %.not21.i = icmp eq i32 %36, %38
  br i1 %.not21.i, label %41, label %39

39:                                               ; preds = %34, %29
  %40 = or i32 %.129.i, 4
  br label %41

41:                                               ; preds = %39, %34
  %.3.i = phi i32 [ %40, %39 ], [ %.129.i, %34 ]
  %42 = getelementptr inbounds nuw i8, ptr %6, i64 20
  %43 = load i32, ptr %42, align 4, !tbaa !23
  %44 = getelementptr inbounds nuw i8, ptr %3, i64 8
  %45 = load i64, ptr %44, align 8, !tbaa !22
  %46 = trunc i64 %45 to i32
  %.not22.i = icmp eq i32 %43, %46
  %47 = or i32 %.3.i, 16
  %spec.select25.i = select i1 %.not22.i, i32 %.3.i, i32 %47
  br label %match_stat_data.exit

match_stat_data.exit:                             ; preds = %28, %41
  %.2.i = phi i32 [ %spec.select.i, %28 ], [ %spec.select25.i, %41 ]
  %48 = getelementptr inbounds nuw i8, ptr %6, i64 32
  %49 = load i32, ptr %48, align 4, !tbaa !29
  %50 = getelementptr inbounds nuw i8, ptr %3, i64 48
  %51 = load i64, ptr %50, align 8, !tbaa !28
  %52 = trunc i64 %51 to i32
  %53 = icmp eq i32 %52, 0
  %54 = icmp ne i64 %51, 0
  %or.cond.i.i = and i1 %54, %53
  %..i.i = select i1 %or.cond.i.i, i32 -2147483648, i32 %52
  %.not23.i = icmp eq i32 %49, %..i.i
  %.not56 = icmp eq i32 %.2.i, 0
  %.not5 = select i1 %.not23.i, i1 %.not56, i1 false
  br label %55

55:                                               ; preds = %2, %8, %match_stat_data.exit
  %.0.shrunk = phi i1 [ false, %8 ], [ %.not5, %match_stat_data.exit ], [ %.mux, %2 ]
  %.0 = zext i1 %.0.shrunk to i32
  call void @llvm.lifetime.end.p0(i64 144, ptr nonnull %3) #9
  ret i32 %.0
}